target datalayout = "e-m:e-p270:32:32-p271:32:32-p272:64:64-i64:64-i128:128-f80:128-n8:16:32:64-S128"
target triple = "x86_64-pc-linux-gnu"

%"struct.doctest::Approx" = type { double, double, double }

; Function Attrs: inlinehint mustprogress nounwind uwtable
define linkonce_odr dso_local noundef nonnull align 8 dereferenceable(8) ptr @_ZSt3maxIdERKT_S2_S2_(ptr noundef nonnull align 8 dereferenceable(8) %0, ptr noundef nonnull align 8 dereferenceable(8) %1) #4 comdat {
  %3 = alloca ptr, align 8
  %4 = alloca ptr, align 8
  %5 = alloca ptr, align 8
  store ptr %0, ptr %4, align 8, !tbaa !105
  store ptr %1, ptr %5, align 8, !tbaa !105
  %6 = load ptr, ptr %4, align 8, !tbaa !105
  %7 = load double, ptr %6, align 8, !tbaa !18
  %8 = load ptr, ptr %5, align 8, !tbaa !105
  %9 = load double, ptr %8, align 8, !tbaa !18
  %10 = fcmp olt double %7, %9
  br i1 %10, label %11, label %13

11:                                               ; preds = %2
  %12 = load ptr, ptr %5, align 8, !tbaa !105
  store ptr %12, ptr %3, align 8
  br label %15

13:                                               ; preds = %2
  %14 = load ptr, ptr %4, align 8, !tbaa !105
  store ptr %14, ptr %3, align 8
  br label %15

15:                                               ; preds = %13, %11
  %16 = load ptr, ptr %3, align 8
  ret ptr %16
}

; Function Attrs: mustprogress uwtable
define dso_local noundef zeroext i1 @_ZN7doctesteqEdRKNS_6ApproxE(double noundef %0, ptr noundef nonnull align 8 dereferenceable(24) %1) #8 {
  %3 = alloca double, align 8
  %4 = alloca ptr, align 8
  %5 = alloca double, align 8
  %6 = alloca double, align 8
  store double %0, ptr %3, align 8, !tbaa !18
  store ptr %1, ptr %4, align 8, !tbaa !99
  %7 = load double, ptr %3, align 8, !tbaa !18
  %8 = load ptr, ptr %4, align 8, !tbaa !99
  %9 = getelementptr inbounds nuw %"struct.doctest::Approx", ptr %8, i32 0, i32 2
  %10 = load double, ptr %9, align 8, !tbaa !104
  %11 = fsub double %7, %10
  %12 = call double @llvm.fabs.f64(double %11)
  %13 = load ptr, ptr %4, align 8, !tbaa !99
  %14 = getelementptr inbounds nuw %"struct.doctest::Approx", ptr %13, i32 0, i32 0
  %15 = load double, ptr %14, align 8, !tbaa !101
  %16 = load ptr, ptr %4, align 8, !tbaa !99
  %17 = getelementptr inbounds nuw %"struct.doctest::Approx", ptr %16, i32 0, i32 1
  %18 = load double, ptr %17, align 8, !tbaa !103
  call void @llvm.lifetime.start.p0(i64 8, ptr %5) #7
  %19 = load double, ptr %3, align 8, !tbaa !18
  %20 = call double @llvm.fabs.f64(double %19)
  store double %20, ptr %5, align 8, !tbaa !18
  call void @llvm.lifetime.start.p0(i64 8, ptr %6) #7
  %21 = load ptr, ptr %4, align 8, !tbaa !99
  %22 = getelementptr inbounds nuw %"struct.doctest::Approx", ptr %21, i32 0, i32 2
  %23 = load double, ptr %22, align 8, !tbaa !104
  %24 = call double @llvm.fabs.f64(double %23)
  store double %24, ptr %6, align 8, !tbaa !18
  %25 = call noundef nonnull align 8 dereferenceable(8) ptr @_ZSt3maxIdERKT_S2_S2_(ptr noundef nonnull align 8 dereferenceable(8) %5, ptr noundef nonnull align 8 dereferenceable(8) %6)
  %26 = load double, ptr %25, align 8, !tbaa !18
  %27 = fadd double %18, %26
  %28 = fmul double %15, %27
  %29 = fcmp olt double %12, %28
  call void @llvm.lifetime.end.p0(i64 8, ptr %6) #7
  call void @llvm.lifetime.end.p0(i64 8, ptr %5) #7
  ret i1 %29
}

; Function Attrs: mustprogress uwtable
define dso_local noundef zeroext i1 @_ZN7doctestgeEdRKNS_6ApproxE(double noundef %0, ptr noundef nonnull align 8 dereferenceable(24) %1) #8 {
  %3 = alloca double, align 8
  %4 = alloca ptr, align 8
  store double %0, ptr %3, align 8, !tbaa !18
  store ptr %1, ptr %4, align 8, !tbaa !99
  %5 = load double, ptr %3, align 8, !tbaa !18
  %6 = load ptr, ptr %4, align 8, !tbaa !99
  %7 = getelementptr inbounds nuw %"struct.doctest::Approx", ptr %6, i32 0, i32 2
  %8 = load double, ptr %7, align 8, !tbaa !104
  %9 = fcmp ogt double %5, %8
  br i1 %9, label %14, label %10

10:                                               ; preds = %2
  %11 = load double, ptr %3, align 8, !tbaa !18
  %12 = load ptr, ptr %4, align 8, !tbaa !99
  %13 = call noundef zeroext i1 @_ZN7doctesteqEdRKNS_6ApproxE(double noundef %11, ptr noundef nonnull align 8 dereferenceable(24) %12)
  br label %14

14:                                               ; preds = %10, %2
  %15 = phi i1 [ true, %2 ], [ %13, %10 ]
  ret i1 %15
}